Certificate:
    Data:
        Version: 3 (0x2)
        Serial Number:
            42:71:43:42:3a:3b:70:33:71:7b:91:e1:c9:b5:fc:36
    Signature Algorithm: sha256WithRSAEncryption
        Issuer: CN=Ufuk Macbook Pro
        Validity
            Not Before: Aug 26 13:40:33 2022 GMT
            Not After : Nov 28 13:40:33 2024 GMT
        Subject: CN=localhost
        Subject Public Key Info:
            Public Key Algorithm: rsaEncryption
                Public-Key: (2048 bit)
                Modulus:
                    00:ca:9f:6e:c7:e0:51:9c:72:f1:12:ea:5a:2f:fe:
                    8f:79:0a:19:4d:87:2f:36:ff:fe:b3:b7:d2:5c:1f:
                    1a:13:b5:b2:ce:17:4b:ea:ef:88:aa:1b:4b:8c:39:
                    11:da:f5:a5:c1:8b:a0:1c:88:c5:8f:9a:9c:e7:22:
                    9c:28:6d:af:45:79:f0:96:f8:40:cb:6e:41:ae:a1:
                    c1:4f:be:1e:39:5f:5c:e3:64:3f:f2:75:d3:0d:a2:
                    a5:61:98:c6:26:cc:ec:a4:10:c7:81:18:01:69:e5:
                    ca:87:c7:13:3f:9a:6f:f2:4a:cb:24:54:25:79:64:
                    6b:eb:b6:5c:cd:98:12:b9:ff:02:39:4b:91:b9:71:
                    2e:23:84:63:5e:0b:9d:4a:a8:47:21:f9:39:e3:6c:
                    35:19:e2:07:50:a0:4e:70:a9:bf:fe:6b:43:91:ab:
                    0f:3c:9d:57:b9:8e:42:51:1f:e4:86:05:c6:0b:34:
                    3c:09:29:80:f8:8e:44:b4:7b:2f:ab:3e:00:15:13:
                    38:86:07:f9:2b:cf:45:b5:2a:e5:ab:5f:4f:35:73:
                    aa:c6:1f:b9:57:b7:0c:87:c0:14:c9:61:93:ca:2c:
                    fe:5c:4d:81:d1:a5:9e:93:1f:21:62:47:0d:2e:4b:
                    0f:9f:2e:f3:77:34:3f:e6:3c:57:bf:85:fc:51:96:
                    60:2f
                Exponent: 65537 (0x10001)
        X509v3 extensions:
            X509v3 Basic Constraints: 
                CA:FALSE
            X509v3 Subject Key Identifier: 
                48:78:7A:A8:35:4C:99:B6:20:14:BB:4C:06:7A:91:06:C2:F7:36:96
            X509v3 Authority Key Identifier: 
                keyid:F4:5B:B9:E9:60:45:70:5C:FB:B4:AB:DE:7C:45:49:A7:91:91:7D:8E
                DirName:/CN=Ufuk Macbook Pro
                serial:A1:ED:E9:93:60:85:7F:FC

            X509v3 Extended Key Usage: 
                TLS Web Server Authentication
            X509v3 Key Usage: 
                Digital Signature, Key Encipherment
            X509v3 Subject Alternative Name: 
                DNS:localhost, DNS:127.0.0.1
    Signature Algorithm: sha256WithRSAEncryption
         0c:18:fd:de:7b:4c:c0:97:9b:6e:99:ce:7e:2f:bc:cb:f3:d3:
         4b:e6:45:d0:6e:94:02:16:68:1d:c8:a0:ff:46:08:13:63:00:
         e5:9a:86:a4:35:71:de:54:e8:3f:e2:c6:e3:bb:59:e7:b7:26:
         f0:6d:1c:15:e0:7a:9f:66:fd:17:1c:e1:cc:39:c6:78:1d:8c:
         b6:4a:16:09:da:e2:c9:68:ce:b0:03:c5:3d:ec:08:1c:6f:dc:
         f3:7f:a3:d2:9b:2d:c3:58:a8:aa:d9:30:f7:e7:b8:7e:6f:14:
         8d:7d:56:71:56:c2:b9:67:72:c3:df:26:8c:c2:e1:eb:ad:bf:
         7a:98:68:2c:03:04:e2:1d:51:73:a5:2d:8c:9c:8a:57:88:e6:
         28:06:c7:96:9b:5f:ab:9b:9f:85:68:08:87:0f:71:f3:0c:81:
         61:a3:f2:b6:3c:8b:f1:2d:ab:1b:76:d4:4a:34:8a:59:6a:c9:
         86:be:39:ad:c2:2e:24:da:7b:d1:71:f0:89:4d:41:38:20:e3:
         4a:8f:95:7e:b4:7b:b3:07:5b:39:70:77:aa:ee:46:d0:f5:1b:
         b1:16:d7:23:73:1d:ec:12:e4:dd:d8:d4:03:11:fc:72:fb:f1:
         c3:f5:aa:4c:b8:2f:f6:81:dd:36:e1:c7:d9:48:34:65:24:e7:
         f4:3f:18:ae
-----BEGIN CERTIFICATE-----
MIIDdzCCAl+gAwIBAgIQQnFDQjo7cDNxe5HhybX8NjANBgkqhkiG9w0BAQsFADAb
MRkwFwYDVQQDDBBVZnVrIE1hY2Jvb2sgUHJvMB4XDTIyMDgyNjEzNDAzM1oXDTI0
MTEyODEzNDAzM1owFDESMBAGA1UEAwwJbG9jYWxob3N0MIIBIjANBgkqhkiG9w0B
AQEFAAOCAQ8AMIIBCgKCAQEAyp9ux+BRnHLxEupaL/6PeQoZTYcvNv/+s7fSXB8a
E7WyzhdL6u+IqhtLjDkR2vWlwYugHIjFj5qc5yKcKG2vRXnwlvhAy25BrqHBT74e
OV9c42Q/8nXTDaKlYZjGJszspBDHgRgBaeXKh8cTP5pv8krLJFQleWRr67ZczZgS
uf8COUuRuXEuI4RjXgudSqhHIfk542w1GeIHUKBOcKm//mtDkasPPJ1XuY5CUR/k
hgXGCzQ8CSmA+I5EtHsvqz4AFRM4hgf5K89FtSrlq19PNXOqxh+5V7cMh8AUyWGT
yiz+XE2B0aWekx8hYkcNLksPny7zdzQ/5jxXv4X8UZZgLwIDAQABo4G9MIG6MAkG
A1UdEwQCMAAwHQYDVR0OBBYEFEh4eqg1TJm2IBS7TAZ6kQbC9zaWMEsGA1UdIwRE
MEKAFPRbuelgRXBc+7Sr3nxFSaeRkX2OoR+kHTAbMRkwFwYDVQQDDBBVZnVrIE1h
Y2Jvb2sgUHJvggkAoe3pk2CFf/wwEwYDVR0lBAwwCgYIKwYBBQUHAwEwCwYDVR0P
BAQDAgWgMB8GA1UdEQQYMBaCCWxvY2FsaG9zdIIJMTI3LjAuMC4xMA0GCSqGSIb3
DQEBCwUAA4IBAQAMGP3ee0zAl5tumc5+L7zL89NL5kXQbpQCFmgdyKD/RggTYwDl
moakNXHeVOg/4sbju1nntybwbRwV4HqfZv0XHOHMOcZ4HYy2ShYJ2uLJaM6wA8U9
7Agcb9zzf6PSmy3DWKiq2TD357h+bxSNfVZxVsK5Z3LD3yaMwuHrrb96mGgsAwTi
HVFzpS2MnIpXiOYoBseWm1+rm5+FaAiHD3HzDIFho/K2PIvxLasbdtRKNIpZasmG
vjmtwi4k2nvRcfCJTUE4IONKj5V+tHuzB1s5cHeq7kbQ9RuxFtcjcx3sEuTd2NQD
Efxy+/HD9apMuC/2gd024cfZSDRlJOf0Pxiu
-----END CERTIFICATE-----
